; Function Attrs: mustprogress uwtable
define void @_ZNK5faiss10IndexIVFPQ9sa_decodeElPKhPf(ptr noundef nonnull align 8 dereferenceable(544) %0, i64 noundef %1, ptr noundef %2, ptr noundef %3) unnamed_addr #2 align 2 {
  %5 = alloca i64, align 8
  %6 = alloca ptr, align 8
  %7 = alloca ptr, align 8
  %8 = alloca i64, align 8
  store i64 %1, ptr %5, align 8, !tbaa !16
  store ptr %2, ptr %6, align 8, !tbaa !17
  store ptr %3, ptr %7, align 8, !tbaa !19
  call void @llvm.lifetime.start.p0(i64 8, ptr nonnull %8) #17
  %9 = getelementptr inbounds nuw i8, ptr %0, i64 48
  %10 = tail call noundef i64 @_ZNK5faiss15Level1Quantizer16coarse_code_sizeEv(ptr noundef nonnull align 8 dereferenceable(80) %9)
  store i64 %10, ptr %8, align 8, !tbaa !16
  call void (ptr, i32, ptr, ...) @__kmpc_fork_call(ptr nonnull @3, i32 5, ptr nonnull @_ZNK5faiss10IndexIVFPQ9sa_decodeElPKhPf.omp_outlined, ptr nonnull %0, ptr nonnull %5, ptr nonnull %6, ptr nonnull %8, ptr nonnull %7)
  call void @llvm.lifetime.end.p0(i64 8, ptr nonnull %8) #17
  ret void
}